target datalayout = "e-m:e-p270:32:32-p271:32:32-p272:64:64-i64:64-i128:128-f80:128-n8:16:32:64-S128"
target triple = "x86_64-pc-linux-gnu"

%struct.OPTARGS = type { i32, i32, i32, i32, ptr, ptr, ptr, ptr, ptr, i32, i32, ptr, [21 x i8], [256 x ptr], ptr, ptr, ptr, ptr }

; Function Attrs: mustprogress nounwind uwtable
define hidden noundef ptr @_Z12opt_filenameP7OPTARGS(ptr noundef %0) #4 {
  %2 = alloca ptr, align 8
  %3 = alloca ptr, align 8
  store ptr %0, ptr %3, align 8, !tbaa !4
  %4 = load ptr, ptr %3, align 8, !tbaa !4
  %5 = icmp eq ptr null, %4
  br i1 %5, label %6, label %7

6:                                                ; preds = %1
  store ptr null, ptr %2, align 8
  br label %26

7:                                                ; preds = %1
  %8 = load ptr, ptr %3, align 8, !tbaa !4
  %9 = getelementptr inbounds nuw %struct.OPTARGS, ptr %8, i32 0, i32 3
  %10 = load i32, ptr %9, align 4, !tbaa !9
  %11 = icmp eq i32 0, %10
  br i1 %11, label %12, label %16

12:                                               ; preds = %7
  %13 = load ptr, ptr %3, align 8, !tbaa !4
  %14 = getelementptr inbounds nuw %struct.OPTARGS, ptr %13, i32 0, i32 12
  %15 = getelementptr inbounds [21 x i8], ptr %14, i64 0, i64 0
  store ptr %15, ptr %2, align 8
  br label %26

16:                                               ; preds = %7
  %17 = load ptr, ptr %3, align 8, !tbaa !4
  %18 = getelementptr inbounds nuw %struct.OPTARGS, ptr %17, i32 0, i32 7
  %19 = load ptr, ptr %18, align 8, !tbaa !16
  %20 = load ptr, ptr %3, align 8, !tbaa !4
  %21 = getelementptr inbounds nuw %struct.OPTARGS, ptr %20, i32 0, i32 9
  %22 = load i32, ptr %21, align 8, !tbaa !17
  %23 = sext i32 %22 to i64
  %24 = getelementptr inbounds ptr, ptr %19, i64 %23
  %25 = load ptr, ptr %24, align 8, !tbaa !18
  store ptr %25, ptr %2, align 8
  br label %26

26:                                               ; preds = %16, %12, %6
  %27 = load ptr, ptr %2, align 8
  ret ptr %27
}